; Function Attrs: mustprogress uwtable
define hidden noundef ptr @_ZN3smt10theory_str11mk_containsEP4exprS2_(ptr noundef nonnull align 8 dereferenceable(1800) %0, ptr noundef %1, ptr noundef %2) local_unnamed_addr #4 align 2 {
  %4 = alloca [2 x ptr], align 16
  call void @llvm.lifetime.start.p0(i64 16, ptr nonnull %4) #25
  store ptr %1, ptr %4, align 16, !tbaa !337
  %5 = getelementptr inbounds nuw i8, ptr %4, i64 8
  store ptr %2, ptr %5, align 8, !tbaa !337
  %6 = getelementptr inbounds nuw i8, ptr %0, i64 136
  %7 = load ptr, ptr %6, align 8, !tbaa !871
  %8 = getelementptr inbounds nuw i8, ptr %0, i64 144
  %9 = load i32, ptr %8, align 8, !tbaa !164
  %10 = call noundef ptr @_ZN11ast_manager6mk_appEiijPKP4expr(ptr noundef nonnull align 8 dereferenceable(976) %7, i32 noundef %9, i32 noundef 5, i32 noundef 2, ptr noundef nonnull %4)
  call void @llvm.lifetime.end.p0(i64 16, ptr nonnull %4) #25
  %.not.i.i.i.i = icmp eq ptr %10, null
  br i1 %.not.i.i.i.i, label %_ZN15ref_vector_coreI4expr19ref_manager_wrapperIS0_11ast_managerEE7inc_refEPS0_.exit.i, label %11

11:                                               ; preds = %3
  %12 = getelementptr inbounds nuw i8, ptr %10, i64 8
  %13 = load i32, ptr %12, align 4, !tbaa !253
  %14 = add i32 %13, 1
  store i32 %14, ptr %12, align 4, !tbaa !253
  br label %_ZN15ref_vector_coreI4expr19ref_manager_wrapperIS0_11ast_managerEE7inc_refEPS0_.exit.i

_ZN15ref_vector_coreI4expr19ref_manager_wrapperIS0_11ast_managerEE7inc_refEPS0_.exit.i: ; preds = %11, %3
  %15 = getelementptr inbounds nuw i8, ptr %0, i64 248
  %16 = load ptr, ptr %15, align 8, !tbaa !167
  %17 = icmp eq ptr %16, null
  br i1 %17, label %24, label %18

18:                                               ; preds = %_ZN15ref_vector_coreI4expr19ref_manager_wrapperIS0_11ast_managerEE7inc_refEPS0_.exit.i
  %19 = getelementptr inbounds i8, ptr %16, i64 -4
  %20 = load i32, ptr %19, align 4, !tbaa !336
  %21 = getelementptr inbounds i8, ptr %16, i64 -8
  %22 = load i32, ptr %21, align 4, !tbaa !336
  %23 = icmp eq i32 %20, %22
  br i1 %23, label %24, label %_ZN15ref_vector_coreI4expr19ref_manager_wrapperIS0_11ast_managerEE9push_backEPS0_.exit

24:                                               ; preds = %18, %_ZN15ref_vector_coreI4expr19ref_manager_wrapperIS0_11ast_managerEE7inc_refEPS0_.exit.i
  call void @_ZN6vectorIP4exprLb0EjE13expand_vectorEv(ptr noundef nonnull align 8 dereferenceable(8) %15)
  %.pre.i.i = load ptr, ptr %15, align 8, !tbaa !167
  %.phi.trans.insert.i.i = getelementptr inbounds i8, ptr %.pre.i.i, i64 -4
  %.pre2.i.i = load i32, ptr %.phi.trans.insert.i.i, align 4, !tbaa !336
  br label %_ZN15ref_vector_coreI4expr19ref_manager_wrapperIS0_11ast_managerEE9push_backEPS0_.exit

_ZN15ref_vector_coreI4expr19ref_manager_wrapperIS0_11ast_managerEE9push_backEPS0_.exit: ; preds = %18, %24
  %25 = phi i32 [ %.pre2.i.i, %24 ], [ %20, %18 ]
  %26 = phi ptr [ %.pre.i.i, %24 ], [ %16, %18 ]
  %27 = getelementptr inbounds i8, ptr %26, i64 -4
  %28 = zext i32 %25 to i64
  %29 = getelementptr inbounds nuw ptr, ptr %26, i64 %28
  store ptr %10, ptr %29, align 8, !tbaa !337
  %30 = add i32 %25, 1
  store i32 %30, ptr %27, align 4, !tbaa !336
  %31 = getelementptr inbounds nuw i8, ptr %0, i64 16
  %32 = load ptr, ptr %31, align 8, !tbaa !386
  call void @_ZN3smt7context11internalizeEP4exprb(ptr noundef nonnull align 8 dereferenceable(10544) %32, ptr noundef %10, i1 noundef zeroext false)
  call void @_ZN3smt10theory_str13set_up_axiomsEP4expr(ptr noundef nonnull align 8 dereferenceable(1800) %0, ptr noundef %10)
  ret ptr %10
}